target datalayout = "e-m:e-p270:32:32-p271:32:32-p272:64:64-i64:64-i128:128-f80:128-n8:16:32:64-S128"
target triple = "x86_64-pc-linux-gnu"

%struct._priv_exr_context_t = type { i8, i8, i8, i8, i8, i8, i8, i8, %struct.exr_attr_string_t, %struct.exr_attr_string_t, ptr, ptr, ptr, ptr, ptr, ptr, ptr, ptr, i32, i32, i32, i32, i32, float, ptr, ptr, ptr, i64, ptr, ptr, i64, i32, i32, i32, i32, %struct._priv_exr_part_t, ptr, ptr, %struct.exr_attribute_list, %union.pthread_mutex_t, i8, i8, [2 x i8], i32 }
%struct.exr_attr_string_t = type { i32, i32, ptr }
%struct._priv_exr_part_t = type { i32, i32, %struct.exr_attribute_list, ptr, ptr, ptr, ptr, ptr, ptr, ptr, ptr, ptr, ptr, ptr, ptr, ptr, ptr, %struct.exr_attr_box2i_t, %struct.exr_attr_box2i_t, i32, i32, i32, float, i32, i32, ptr, ptr, ptr, ptr, i64, i16, i16, i32, i64, i64 }
%struct.exr_attr_box2i_t = type { %struct.exr_attr_v2i_t, %struct.exr_attr_v2i_t }
%struct.exr_attr_v2i_t = type { i32, i32 }
%struct.exr_attribute_list = type { i32, i32, ptr, ptr }
%union.pthread_mutex_t = type { %struct.__pthread_mutex_s }
%struct.__pthread_mutex_s = type { i32, i32, i32, i32, i32, i16, i16, %struct.__pthread_internal_list }
%struct.__pthread_internal_list = type { ptr, ptr }

; Function Attrs: inlinehint nounwind uwtable
define internal void @internal_exr_unlock(ptr noundef %0) #2 {
  %2 = alloca ptr, align 8
  %3 = alloca ptr, align 8
  store ptr %0, ptr %2, align 8, !tbaa !3
  call void @llvm.lifetime.start.p0(i64 8, ptr %3) #6
  %4 = load ptr, ptr %2, align 8, !tbaa !3
  %5 = ptrtoint ptr %4 to i64
  %6 = inttoptr i64 %5 to ptr
  store ptr %6, ptr %3, align 8, !tbaa !3
  %7 = load ptr, ptr %3, align 8, !tbaa !3
  %8 = getelementptr inbounds nuw %struct._priv_exr_context_t, ptr %7, i32 0, i32 39
  %9 = call i32 @pthread_mutex_unlock(ptr noundef %8) #6
  call void @llvm.lifetime.end.p0(i64 8, ptr %3) #6
  ret void
}

; Function Attrs: inlinehint nounwind uwtable
define internal void @internal_exr_lock(ptr noundef %0) #2 {
  %2 = alloca ptr, align 8
  %3 = alloca ptr, align 8
  store ptr %0, ptr %2, align 8, !tbaa !3
  call void @llvm.lifetime.start.p0(i64 8, ptr %3) #6
  %4 = load ptr, ptr %2, align 8, !tbaa !3
  %5 = ptrtoint ptr %4 to i64
  %6 = inttoptr i64 %5 to ptr
  store ptr %6, ptr %3, align 8, !tbaa !3
  %7 = load ptr, ptr %3, align 8, !tbaa !3
  %8 = getelementptr inbounds nuw %struct._priv_exr_context_t, ptr %7, i32 0, i32 39
  %9 = call i32 @pthread_mutex_lock(ptr noundef %8) #6
  call void @llvm.lifetime.end.p0(i64 8, ptr %3) #6
  ret void
}

; Function Attrs: nounwind uwtable
define i32 @exr_get_count(ptr noundef %0, ptr noundef %1) #0 {
  %3 = alloca i32, align 4
  %4 = alloca ptr, align 8
  %5 = alloca ptr, align 8
  %6 = alloca i32, align 4
  %7 = alloca i32, align 4
  store ptr %0, ptr %4, align 8, !tbaa !3
  store ptr %1, ptr %5, align 8, !tbaa !8
  call void @llvm.lifetime.start.p0(i64 4, ptr %6) #6
  %8 = load ptr, ptr %4, align 8, !tbaa !3
  %9 = icmp ne ptr %8, null
  br i1 %9, label %11, label %10

10:                                               ; preds = %2
  store i32 2, ptr %3, align 4
  store i32 1, ptr %7, align 4
  br label %39

11:                                               ; preds = %2
  %12 = load ptr, ptr %5, align 8, !tbaa !8
  %13 = icmp ne ptr %12, null
  br i1 %13, label %20, label %14

14:                                               ; preds = %11
  %15 = load ptr, ptr %4, align 8, !tbaa !3
  %16 = getelementptr inbounds nuw %struct._priv_exr_context_t, ptr %15, i32 0, i32 12
  %17 = load ptr, ptr %16, align 8, !tbaa !10
  %18 = load ptr, ptr %4, align 8, !tbaa !3
  %19 = call i32 %17(ptr noundef %18, i32 noundef 3)
  store i32 %19, ptr %3, align 4
  store i32 1, ptr %7, align 4
  br label %39

20:                                               ; preds = %11
  %21 = load ptr, ptr %4, align 8, !tbaa !3
  %22 = getelementptr inbounds nuw %struct._priv_exr_context_t, ptr %21, i32 0, i32 0
  %23 = load i8, ptr %22, align 8, !tbaa !25
  %24 = zext i8 %23 to i32
  %25 = icmp eq i32 %24, 1
  br i1 %25, label %26, label %32

26:                                               ; preds = %20
  %27 = load ptr, ptr %4, align 8, !tbaa !3
  call void @internal_exr_lock(ptr noundef %27)
  %28 = load ptr, ptr %4, align 8, !tbaa !3
  %29 = getelementptr inbounds nuw %struct._priv_exr_context_t, ptr %28, i32 0, i32 34
  %30 = load i32, ptr %29, align 4, !tbaa !26
  store i32 %30, ptr %6, align 4, !tbaa !27
  %31 = load ptr, ptr %4, align 8, !tbaa !3
  call void @internal_exr_unlock(ptr noundef %31)
  br label %36

32:                                               ; preds = %20
  %33 = load ptr, ptr %4, align 8, !tbaa !3
  %34 = getelementptr inbounds nuw %struct._priv_exr_context_t, ptr %33, i32 0, i32 34
  %35 = load i32, ptr %34, align 4, !tbaa !26
  store i32 %35, ptr %6, align 4, !tbaa !27
  br label %36

36:                                               ; preds = %32, %26
  %37 = load i32, ptr %6, align 4, !tbaa !27
  %38 = load ptr, ptr %5, align 8, !tbaa !8
  store i32 %37, ptr %38, align 4, !tbaa !27
  store i32 0, ptr %3, align 4
  store i32 1, ptr %7, align 4
  br label %39

39:                                               ; preds = %36, %14, %10
  call void @llvm.lifetime.end.p0(i64 4, ptr %6) #6
  %40 = load i32, ptr %3, align 4
  ret i32 %40
}