; Function Attrs: nounwind uwtable
define i32 @exr_get_count(ptr noundef %0, ptr noundef writeonly %1) local_unnamed_addr #0 {
  %.not = icmp eq ptr %0, null
  br i1 %.not, label %21, label %3

3:                                                ; preds = %2
  %.not14 = icmp eq ptr %1, null
  br i1 %.not14, label %4, label %8

4:                                                ; preds = %3
  %5 = getelementptr inbounds nuw i8, ptr %0, i64 56
  %6 = load ptr, ptr %5, align 8, !tbaa !3
  %7 = tail call i32 %6(ptr noundef nonnull %0, i32 noundef 3) #6
  br label %21

8:                                                ; preds = %3
  %9 = load i8, ptr %0, align 8, !tbaa !22
  %10 = icmp eq i8 %9, 1
  br i1 %10, label %11, label %17

11:                                               ; preds = %8
  %12 = getelementptr inbounds nuw i8, ptr %0, i64 504
  %13 = tail call i32 @pthread_mutex_lock(ptr noundef nonnull %12) #6
  %14 = getelementptr inbounds nuw i8, ptr %0, i64 196
  %15 = load i32, ptr %14, align 4, !tbaa !23
  %16 = tail call i32 @pthread_mutex_unlock(ptr noundef nonnull %12) #6
  br label %20

17:                                               ; preds = %8
  %18 = getelementptr inbounds nuw i8, ptr %0, i64 196
  %19 = load i32, ptr %18, align 4, !tbaa !23
  br label %20

20:                                               ; preds = %17, %11
  %.0 = phi i32 [ %15, %11 ], [ %19, %17 ]
  store i32 %.0, ptr %1, align 4, !tbaa !24
  br label %21

21:                                               ; preds = %2, %20, %4
  %.011 = phi i32 [ 0, %20 ], [ %7, %4 ], [ 2, %2 ]
  ret i32 %.011
}